(dp0
VServer
p1
Vcmsweb.cern.ch
p2
sVPort
p3
V
p4
sVRequestName
p5
V241211_115516:joshin_crab_Run3_2024_step1_GEN-SIM
p6
sVvoRole
p7
VNULL
p8
sVvoGroup
p9
g4
sVinstance
p10
Vprod
p11
sVOriginalConfig
p12
ccopy_reg
_reconstructor
p13
(cWMCore.Configuration
Configuration
p14
c__builtin__
object
p15
Ntp16
Rp17
(dp18
V_internal_sections
p19
(lp20
VGeneral
p21
aVJobType
p22
aVData
p23
aVSite
p24
aVUser
p25
aVDebug
p26
asg21
g13
(cWMCore.Configuration
ConfigSection
p27
g15
Ntp28
Rp29
(dp30
V_internal_documentation
p31
g4
sV_internal_name
p32
g21
sV_internal_settings
p33
c__builtin__
set
p34
((lp35
VtransferOutputs
p36
aVrequestName
p37
aVtransferLogs
p38
atp39
Rp40
sV_internal_docstrings
p41
(dp42
sV_internal_children
p43
g34
((lp44
tp45
Rp46
sV_internal_parent_ref
p47
NsV_internal_skipChecks
p48
I00
sg37
VRun3_2024_step1_GEN-SIM
p49
sg38
I01
sg36
I01
sbsg22
g13
(g27
g15
Ntp50
Rp51
(dp52
g31
g4
sg32
g22
sg33
g34
((lp53
VmaxMemoryMB
p54
aVpsetName
p55
aVpluginName
p56
aVnumCores
p57
atp58
Rp59
sg41
(dp60
sg43
g34
((lp61
tp62
Rp63
sg47
Nsg48
I00
sg56
VPrivateMC
p64
sg55
V/afs/cern.ch/user/j/joshin/public/TrackDetMatchmaker/CMSSW_14_2_0/src/TrackDetMatchmaker/MC/test/SingleMuPt1-1000_pythia8_cfi_GEN_SIM.py
p65
sg54
I2500
sg57
I1
sbsg23
g13
(g27
g15
Ntp66
Rp67
(dp68
g31
g4
sg32
g23
sg33
g34
((lp69
VtotalUnits
p70
aVunitsPerJob
p71
aVsplitting
p72
aVoutLFNDirBase
p73
aVoutputPrimaryDataset
p74
aVoutputDatasetTag
p75
aVpublication
p76
atp77
Rp78
sg41
(dp79
sg43
g34
((lp80
tp81
Rp82
sg47
Nsg48
I00
sg76
I00
sg74
VRun3_2024_SinglemuPt1-1000
p83
sg72
VEventBased
p84
sg71
I500
sg70
I50000
sg73
V/store/user/joshin/Run3_2024
p85
sg75
VGENSIM
p86
sbsg24
g13
(g27
g15
Ntp87
Rp88
(dp89
g31
g4
sg32
g24
sg33
g34
((lp90
VstorageSite
p91
atp92
Rp93
sg41
(dp94
sg43
g34
((lp95
tp96
Rp97
sg47
Nsg48
I00
sg91
VT3_CH_CERNBOX
p98
sbsg25
g13
(g27
g15
Ntp99
Rp100
(dp101
g31
g4
sg32
g25
sg33
g34
((lp102
tp103
Rp104
sg41
(dp105
sg43
g34
((lp106
tp107
Rp108
sg47
Nsg48
I00
sbsg26
g13
(g27
g15
Ntp109
Rp110
(dp111
g31
g4
sg32
g26
sg33
g34
((lp112
tp113
Rp114
sg41
(dp115
sg43
g34
((lp116
tp117
Rp118
sg47
Nsg48
I00
sbsbs.